(dp1
S'files'
p2
(dp3
S'_home_sebastien_devel_janitoo_janitoo_src_janitoo_mqtt'
p4
(dp5
S'index'
p6
(dp7
S'html_filename'
p8
S'_home_sebastien_devel_janitoo_janitoo_src_janitoo_mqtt.html'
p9
sS'name'
p10
S'/home/sebastien/devel/janitoo/janitoo/src/janitoo/mqtt'
p11
sS'nums'
p12
ccopy_reg
_reconstructor
p13
(ccoverage.results
Numbers
p14
c__builtin__
object
p15
NtRp16
(dp17
S'n_files'
p18
I1
sS'n_branches'
p19
I0
sS'n_statements'
p20
I134
sS'n_excluded'
p21
I0
sS'n_partial_branches'
p22
I0
sS'n_missing'
p23
I39
sS'n_missing_branches'
p24
I0
sbssS'hash'
p25
S'j\xc8\xe3\x07\xbe\xeb\x15y\xf4)p*q\x88w@'
p26
ssS'janitoo_raspberry_i2c_vcnl40xx'
p27
(dp28
S'index'
p29
(dp30
S'html_filename'
p31
S'janitoo_raspberry_i2c_vcnl40xx.html'
p32
sS'name'
p33
g27
sS'nums'
p34
g13
(g14
g15
NtRp35
(dp36
g18
I1
sg19
I0
sg20
I4
sg21
I5
sg22
I0
sg23
I0
sg24
I0
sbssS'hash'
p37
S'\xb7\xeb\xa7\x9c>\xb6$\xa8"\x12\xe3\xefN\xc1\xe9\xcd'
p38
ssS'_home_sebastien_devel_janitoo_janitoo_factory_src_janitoo_factory_values_sensor'
p39
(dp40
g6
(dp41
g8
S'_home_sebastien_devel_janitoo_janitoo_factory_src_janitoo_factory_values_sensor.html'
p42
sg10
S'/home/sebastien/devel/janitoo/janitoo_factory/src/janitoo_factory/values/sensor'
p43
sg12
g13
(g14
g15
NtRp44
(dp45
g18
I1
sg19
I0
sg20
I194
sg21
I0
sg22
I0
sg23
I115
sg24
I0
sbssg25
S'\x89\xfa\x1b\xe5\xb5tiHn\xb2;\x96j\x8e\x1a\xc1'
p46
ssS'_home_sebastien_devel_janitoo_janitoo_src_janitoo_value_factory'
p47
(dp48
g6
(dp49
g8
S'_home_sebastien_devel_janitoo_janitoo_src_janitoo_value_factory.html'
p50
sg10
S'/home/sebastien/devel/janitoo/janitoo/src/janitoo/value_factory'
p51
sg12
g13
(g14
g15
NtRp52
(dp53
g18
I1
sg19
I0
sg20
I237
sg21
I0
sg22
I0
sg23
I207
sg24
I0
sbssg25
S',\xb5l\x19\x83\x16\xe2\x91\x05\xaf\xbcY\x81\xdbj\x0f'
p54
ssS'_home_sebastien_devel_janitoo_janitoo_src_janitoo__compat'
p55
(dp56
g6
(dp57
g8
S'_home_sebastien_devel_janitoo_janitoo_src_janitoo__compat.html'
p58
sg10
S'/home/sebastien/devel/janitoo/janitoo/src/janitoo/_compat'
p59
sg12
g13
(g14
g15
NtRp60
(dp61
g18
I1
sg19
I0
sg20
I46
sg21
I0
sg22
I0
sg23
I46
sg24
I0
sbssg25
S'\xf9\x15,\xcb\xd5\xbd\x1d+\xd7\xd5\xd9\xf4\xb2%\x16i'
p62
ssS'_home_sebastien_devel_janitoo_janitoo_src_janitoo_server_updater'
p63
(dp64
g6
(dp65
g8
S'_home_sebastien_devel_janitoo_janitoo_src_janitoo_server_updater.html'
p66
sg10
S'/home/sebastien/devel/janitoo/janitoo/src/janitoo/server_updater'
p67
sg12
g13
(g14
g15
NtRp68
(dp69
g18
I1
sg19
I0
sg20
I264
sg21
I0
sg22
I0
sg23
I264
sg24
I0
sbssg25
S'\x01\xab\xe7KQB\xad\xbeA\x16\xd1]\xf7\x8e\xc2\x07'
p70
ssS'_home_sebastien_devel_janitoo_janitoo_src_janitoo_node'
p71
(dp72
g6
(dp73
g8
S'_home_sebastien_devel_janitoo_janitoo_src_janitoo_node.html'
p74
sg10
S'/home/sebastien/devel/janitoo/janitoo/src/janitoo/node'
p75
sg12
g13
(g14
g15
NtRp76
(dp77
g18
I1
sg19
I0
sg20
I1132
sg21
I0
sg22
I0
sg23
I700
sg24
I0
sbssg25
S'e\xab\x8ab\x12\xeeD\xb5\xea\x90Se\xbdy\xa5\x9d'
p78
ssS'_home_sebastien_devel_janitoo_janitoo_factory_src_janitoo_factory_threads_scenes'
p79
(dp80
g6
(dp81
g8
S'_home_sebastien_devel_janitoo_janitoo_factory_src_janitoo_factory_threads_scenes.html'
p82
sg10
S'/home/sebastien/devel/janitoo/janitoo_factory/src/janitoo_factory/threads/scenes'
p83
sg12
g13
(g14
g15
NtRp84
(dp85
g18
I1
sg19
I0
sg20
I101
sg21
I7
sg22
I0
sg23
I56
sg24
I0
sbssg25
S'\xf7\xf5Y\xa2U\x05\x91xC\xb62\xb9\xed*\x99\x9c'
p86
ssS'_home_sebastien_devel_janitoo_janitoo_factory_src_janitoo_factory_threads_email'
p87
(dp88
g6
(dp89
g8
S'_home_sebastien_devel_janitoo_janitoo_factory_src_janitoo_factory_threads_email.html'
p90
sg10
S'/home/sebastien/devel/janitoo/janitoo_factory/src/janitoo_factory/threads/email'
p91
sg12
g13
(g14
g15
NtRp92
(dp93
g18
I1
sg19
I0
sg20
I27
sg21
I0
sg22
I0
sg23
I8
sg24
I0
sbssg25
S'o#\x95\xec-\xad\xf2\xe9\xe5\xdbROWjC\x0e'
p94
ssS'_home_sebastien_devel_janitoo_janitoo_factory_src_janitoo_factory_threads___init__'
p95
(dp96
g6
(dp97
g8
S'_home_sebastien_devel_janitoo_janitoo_factory_src_janitoo_factory_threads___init__.html'
p98
sg10
S'/home/sebastien/devel/janitoo/janitoo_factory/src/janitoo_factory/threads/__init__'
p99
sg12
g13
(g14
g15
NtRp100
(dp101
g18
I1
sg19
I0
sg20
I4
sg21
I5
sg22
I0
sg23
I0
sg24
I0
sbssg25
S'\xbet\xf8\x99\xbe\xda\x9e\xc9&\xaa\xae\xff\x03\xea\xdc.'
p102
ssS'_home_sebastien_devel_janitoo_janitoo_src_janitoo_bus'
p103
(dp104
g6
(dp105
g8
S'_home_sebastien_devel_janitoo_janitoo_src_janitoo_bus.html'
p106
sg10
S'/home/sebastien/devel/janitoo/janitoo/src/janitoo/bus'
p107
sg12
g13
(g14
g15
NtRp108
(dp109
g18
I1
sg19
I0
sg20
I172
sg21
I0
sg22
I0
sg23
I117
sg24
I0
sbssg25
S'\x92\xa1\xcb\xcc\xc4\xf5y\x07\x11\x8e\x94\x156+\xcb\\'
p110
ssS'_home_sebastien_devel_janitoo_janitoo_src_janitoo_server'
p111
(dp112
g6
(dp113
g8
S'_home_sebastien_devel_janitoo_janitoo_src_janitoo_server.html'
p114
sg10
S'/home/sebastien/devel/janitoo/janitoo/src/janitoo/server'
p115
sg12
g13
(g14
g15
NtRp116
(dp117
g18
I1
sg19
I0
sg20
I323
sg21
I0
sg22
I0
sg23
I181
sg24
I0
sbssg25
S's\xb8\xed\x9c\xb8\xbb\x1f\x90\xd0-^x\xcf\x9e<\x82'
p118
ssS'_home_sebastien_devel_janitoo_janitoo_factory_src_janitoo_factory_values_other'
p119
(dp120
g6
(dp121
g8
S'_home_sebastien_devel_janitoo_janitoo_factory_src_janitoo_factory_values_other.html'
p122
sg10
S'/home/sebastien/devel/janitoo/janitoo_factory/src/janitoo_factory/values/other'
p123
sg12
g13
(g14
g15
NtRp124
(dp125
g18
I1
sg19
I0
sg20
I95
sg21
I0
sg22
I0
sg23
I62
sg24
I0
sbssg25
S'U\xc0C\x1f1%\xa4(\xe8\xf1\x00R\xe1\x9d#\x8b'
p126
ssS'_home_sebastien_devel_janitoo_janitoo_src_janitoo_tests'
p127
(dp128
g6
(dp129
g8
S'_home_sebastien_devel_janitoo_janitoo_src_janitoo_tests.html'
p130
sg10
S'/home/sebastien/devel/janitoo/janitoo/src/janitoo/tests'
p131
sg12
g13
(g14
g15
NtRp132
(dp133
g18
I1
sg19
I0
sg20
I62
sg21
I0
sg22
I0
sg23
I20
sg24
I0
sbssg25
S'C\x9e\xa4`\xcbI\xf6_\xa2\x0b\x05\x0f\xea_\x0b\x8f'
p134
ssS'_home_sebastien_devel_janitoo_janitoo_factory_src_janitoo_factory_threads_views'
p135
(dp136
g6
(dp137
g8
S'_home_sebastien_devel_janitoo_janitoo_factory_src_janitoo_factory_threads_views.html'
p138
sg10
S'/home/sebastien/devel/janitoo/janitoo_factory/src/janitoo_factory/threads/views'
p139
sg12
g13
(g14
g15
NtRp140
(dp141
g18
I1
sg19
I0
sg20
I202
sg21
I0
sg22
I0
sg23
I202
sg24
I0
sbssg25
S'\x14b\xcdj\x94\x8dq\xce\xb4\xf3\xfeX\xe8\x04}D'
p142
ssS'_home_sebastien_devel_janitoo_janitoo_factory_src_janitoo_factory_values_action'
p143
(dp144
g6
(dp145
g8
S'_home_sebastien_devel_janitoo_janitoo_factory_src_janitoo_factory_values_action.html'
p146
sg10
S'/home/sebastien/devel/janitoo/janitoo_factory/src/janitoo_factory/values/action'
p147
sg12
g13
(g14
g15
NtRp148
(dp149
g18
I1
sg19
I0
sg20
I99
sg21
I0
sg22
I0
sg23
I45
sg24
I0
sbssg25
S'\xb0\xb0>\xc6\x08\x850/f\x7f_\xaaa\x0e? '
p150
ssS'_home_sebastien_devel_janitoo_janitoo_factory_src_janitoo_factory_values_config'
p151
(dp152
g6
(dp153
g8
S'_home_sebastien_devel_janitoo_janitoo_factory_src_janitoo_factory_values_config.html'
p154
sg10
S'/home/sebastien/devel/janitoo/janitoo_factory/src/janitoo_factory/values/config'
p155
sg12
g13
(g14
g15
NtRp156
(dp157
g18
I1
sg19
I0
sg20
I149
sg21
I0
sg22
I0
sg23
I103
sg24
I0
sbssg25
S'\xca\xd5}\xaeuT\x99\x8e*\x8f\x08\x8d\xcf!\x105'
p158
ssS'_home_sebastien_devel_janitoo_janitoo_src_janitoo_thread'
p159
(dp160
g6
(dp161
g8
S'_home_sebastien_devel_janitoo_janitoo_src_janitoo_thread.html'
p162
sg10
S'/home/sebastien/devel/janitoo/janitoo/src/janitoo/thread'
p163
sg12
g13
(g14
g15
NtRp164
(dp165
g18
I1
sg19
I0
sg20
I143
sg21
I0
sg22
I0
sg23
I69
sg24
I0
sbssg25
S'\xa2O\x10\x96\xf5\xea!\xe2\x9f\xe8\x18\x14w\xe0j\xd8'
p166
ssS'_home_sebastien_devel_janitoo_janitoo_src_janitoo_options'
p167
(dp168
g6
(dp169
g8
S'_home_sebastien_devel_janitoo_janitoo_src_janitoo_options.html'
p170
sg10
S'/home/sebastien/devel/janitoo/janitoo/src/janitoo/options'
p171
sg12
g13
(g14
g15
NtRp172
(dp173
g18
I1
sg19
I0
sg20
I156
sg21
I0
sg22
I0
sg23
I100
sg24
I0
sbssg25
S'\xf7\xe1X\xc9\xde\xac\xde\x88*9\xa3\xc3\nRx\xe1'
p174
ssS'_home_sebastien_devel_janitoo_janitoo_factory_src_janitoo_factory_threads_http'
p175
(dp176
g6
(dp177
g8
S'_home_sebastien_devel_janitoo_janitoo_factory_src_janitoo_factory_threads_http.html'
p178
sg10
S'/home/sebastien/devel/janitoo/janitoo_factory/src/janitoo_factory/threads/http'
p179
sg12
g13
(g14
g15
NtRp180
(dp181
g18
I1
sg19
I0
sg20
I286
sg21
I0
sg22
I0
sg23
I226
sg24
I0
sbssg25
S'\x91.\xe2PuG\x8fVw\x95l>d\xb6\xcbN'
p182
ssS'_home_sebastien_devel_janitoo_janitoo_factory_src_janitoo_factory_threads_remote'
p183
(dp184
g6
(dp185
g8
S'_home_sebastien_devel_janitoo_janitoo_factory_src_janitoo_factory_threads_remote.html'
p186
sg10
S'/home/sebastien/devel/janitoo/janitoo_factory/src/janitoo_factory/threads/remote'
p187
sg12
g13
(g14
g15
NtRp188
(dp189
g18
I1
sg19
I0
sg20
I170
sg21
I0
sg22
I0
sg23
I125
sg24
I0
sbssg25
S'\x80+\xc2\xc6\xbc\x15\xe7,\x9a\xf2\xab8\x19`\xaa\x89'
p190
ssS'_home_sebastien_devel_janitoo_janitoo_src_janitoo_utils'
p191
(dp192
g6
(dp193
g8
S'_home_sebastien_devel_janitoo_janitoo_src_janitoo_utils.html'
p194
sg10
S'/home/sebastien/devel/janitoo/janitoo/src/janitoo/utils'
p195
sg12
g13
(g14
g15
NtRp196
(dp197
g18
I1
sg19
I0
sg20
I70
sg21
I0
sg22
I0
sg23
I21
sg24
I0
sbssg25
S'D^\xd6[\xbe\xf6\x8f\xb9\xef\xe6\x9b=\xc7\x7f\xdf\xb5'
p198
ssS'janitoo_raspberry_i2c_vcnl40xx_vcnl40xx'
p199
(dp200
g29
(dp201
g31
S'janitoo_raspberry_i2c_vcnl40xx_vcnl40xx.html'
p202
sg33
S'janitoo_raspberry_i2c_vcnl40xx.vcnl40xx'
p203
sg34
g13
(g14
g15
NtRp204
(dp205
g18
I1
sg19
I0
sg20
I97
sg21
I0
sg22
I0
sg23
I4
sg24
I0
sbssg37
S'\xaf\t>\xd1+\xe7Oc\xf7\xe83\xa3\xc2u\x07\x0e'
p206
ssS'_home_sebastien_devel_janitoo_janitoo_factory_src_janitoo_factory_values___init__'
p207
(dp208
g6
(dp209
g8
S'_home_sebastien_devel_janitoo_janitoo_factory_src_janitoo_factory_values___init__.html'
p210
sg10
S'/home/sebastien/devel/janitoo/janitoo_factory/src/janitoo_factory/values/__init__'
p211
sg12
g13
(g14
g15
NtRp212
(dp213
g18
I1
sg19
I0
sg20
I4
sg21
I5
sg22
I0
sg23
I0
sg24
I0
sbssg25
S'\xbet\xf8\x99\xbe\xda\x9e\xc9&\xaa\xae\xff\x03\xea\xdc.'
p214
ssS'_home_sebastien_devel_janitoo_janitoo_src_janitoo_classes'
p215
(dp216
g6
(dp217
g8
S'_home_sebastien_devel_janitoo_janitoo_src_janitoo_classes.html'
p218
sg10
S'/home/sebastien/devel/janitoo/janitoo/src/janitoo/classes'
p219
sg12
g13
(g14
g15
NtRp220
(dp221
g18
I1
sg19
I0
sg20
I9
sg21
I0
sg22
I0
sg23
I0
sg24
I0
sbssg25
S'4\xb3\x9c\xd8|\xd0"\xda\x9d#\xe4\xd3\x1f\xfe!E'
p222
ssS'_home_sebastien_devel_janitoo_janitoo_factory_src_janitoo_factory_values_basic'
p223
(dp224
g6
(dp225
g8
S'_home_sebastien_devel_janitoo_janitoo_factory_src_janitoo_factory_values_basic.html'
p226
sg10
S'/home/sebastien/devel/janitoo/janitoo_factory/src/janitoo_factory/values/basic'
p227
sg12
g13
(g14
g15
NtRp228
(dp229
g18
I1
sg19
I0
sg20
I53
sg21
I0
sg22
I0
sg23
I22
sg24
I0
sbssg25
S'\xc7\x1b\x84V\xdf>\xf8\x8dX"\xb4\xe1\xbbA+\xe5'
p230
ssS'_home_sebastien_devel_janitoo_janitoo_src_janitoo___init__'
p231
(dp232
g6
(dp233
g8
S'_home_sebastien_devel_janitoo_janitoo_src_janitoo___init__.html'
p234
sg10
S'/home/sebastien/devel/janitoo/janitoo/src/janitoo/__init__'
p235
sg12
g13
(g14
g15
NtRp236
(dp237
g18
I1
sg19
I0
sg20
I4
sg21
I5
sg22
I0
sg23
I0
sg24
I0
sbssg25
S'\xbet\xf8\x99\xbe\xda\x9e\xc9&\xaa\xae\xff\x03\xea\xdc.'
p238
ssS'_home_sebastien_devel_janitoo_janitoo_src_janitoo_value'
p239
(dp240
g6
(dp241
g8
S'_home_sebastien_devel_janitoo_janitoo_src_janitoo_value.html'
p242
sg10
S'/home/sebastien/devel/janitoo/janitoo/src/janitoo/value'
p243
sg12
g13
(g14
g15
NtRp244
(dp245
g18
I1
sg19
I0
sg20
I104
sg21
I0
sg22
I0
sg23
I44
sg24
I0
sbssg25
S'2;\xaa\xa8#B\xd1\xf8\x85O\x1f\x80\xff\xba\x1f\x8d'
p246
ssS'_home_sebastien_devel_janitoo_janitoo_src_janitoo_runner'
p247
(dp248
g6
(dp249
g8
S'_home_sebastien_devel_janitoo_janitoo_src_janitoo_runner.html'
p250
sg10
S'/home/sebastien/devel/janitoo/janitoo/src/janitoo/runner'
p251
sg12
g13
(g14
g15
NtRp252
(dp253
g18
I1
sg19
I0
sg20
I221
sg21
I0
sg22
I0
sg23
I140
sg24
I0
sbssg25
S'm\xbek\xc18\rI"v\xec \xf6\x98\x82\x90\xf7'
p254
ssS'_home_sebastien_devel_janitoo_janitoo_src_janitoo_component'
p255
(dp256
g6
(dp257
g8
S'_home_sebastien_devel_janitoo_janitoo_src_janitoo_component.html'
p258
sg10
S'/home/sebastien/devel/janitoo/janitoo/src/janitoo/component'
p259
sg12
g13
(g14
g15
NtRp260
(dp261
g18
I1
sg19
I0
sg20
I65
sg21
I0
sg22
I0
sg23
I45
sg24
I0
sbssg25
S'\x1b.\xc8\xac\xc7\x88\xad\x07\x01\xaef\xe7l\xe0\xdd\x9e'
p262
ssS'_home_sebastien_devel_janitoo_janitoo_factory_src_janitoo_factory___init__'
p263
(dp264
g6
(dp265
g8
S'_home_sebastien_devel_janitoo_janitoo_factory_src_janitoo_factory___init__.html'
p266
sg10
S'/home/sebastien/devel/janitoo/janitoo_factory/src/janitoo_factory/__init__'
p267
sg12
g13
(g14
g15
NtRp268
(dp269
g18
I1
sg19
I0
sg20
I4
sg21
I5
sg22
I0
sg23
I0
sg24
I0
sbssg25
S'\xbet\xf8\x99\xbe\xda\x9e\xc9&\xaa\xae\xff\x03\xea\xdc.'
p270
ssS'_home_sebastien_devel_janitoo_janitoo_src_janitoo_dhcp'
p271
(dp272
g6
(dp273
g8
S'_home_sebastien_devel_janitoo_janitoo_src_janitoo_dhcp.html'
p274
sg10
S'/home/sebastien/devel/janitoo/janitoo/src/janitoo/dhcp'
p275
sg12
g13
(g14
g15
NtRp276
(dp277
g18
I1
sg19
I0
sg20
I1442
sg21
I0
sg22
I0
sg23
I1267
sg24
I0
sbssg25
S'\xa1\xbfa3r\x05\x14m\xfd\x1b\x8c\x9f\x91\x01\xf3U'
p278
sssS'version'
p279
S'3.7.1'
p280
sS'settings'
p281
S'\r0\xae\x03<Vl\xd2W\xe9[\xf7\x007Y\xea'
p282
sS'format'
p283
I1
s.